target datalayout = "e-m:e-p270:32:32-p271:32:32-p272:64:64-i64:64-i128:128-f80:128-n8:16:32:64-S128"
target triple = "x86_64-pc-linux-gnu"

%"class.std::__1::strstreambuf" = type { %"class.std::__1::basic_streambuf", i32, i64, ptr, ptr }
%"class.std::__1::basic_streambuf" = type { ptr, %"class.std::__1::locale", ptr, ptr, ptr, ptr, ptr, ptr }
%"class.std::__1::locale" = type { ptr }

; Function Attrs: mustprogress nounwind uwtable
define dso_local void @_ZNSt3__112strstreambuf6freezeEb(ptr noundef nonnull align 8 dereferenceable(96) %0, i1 noundef zeroext %1) #1 align 2 {
  %3 = alloca ptr, align 8
  %4 = alloca i8, align 1
  store ptr %0, ptr %3, align 8, !tbaa !4
  %5 = zext i1 %1 to i8
  store i8 %5, ptr %4, align 1, !tbaa !40
  %6 = load ptr, ptr %3, align 8
  %7 = getelementptr inbounds nuw %"class.std::__1::strstreambuf", ptr %6, i32 0, i32 1
  %8 = load i32, ptr %7, align 8, !tbaa !13
  %9 = and i32 %8, 4
  %10 = icmp ne i32 %9, 0
  br i1 %10, label %11, label %23

11:                                               ; preds = %2
  %12 = load i8, ptr %4, align 1, !tbaa !40, !range !42, !noundef !43
  %13 = trunc i8 %12 to i1
  br i1 %13, label %14, label %18

14:                                               ; preds = %11
  %15 = getelementptr inbounds nuw %"class.std::__1::strstreambuf", ptr %6, i32 0, i32 1
  %16 = load i32, ptr %15, align 8, !tbaa !13
  %17 = or i32 %16, 8
  store i32 %17, ptr %15, align 8, !tbaa !13
  br label %22

18:                                               ; preds = %11
  %19 = getelementptr inbounds nuw %"class.std::__1::strstreambuf", ptr %6, i32 0, i32 1
  %20 = load i32, ptr %19, align 8, !tbaa !13
  %21 = and i32 %20, -9
  store i32 %21, ptr %19, align 8, !tbaa !13
  br label %22

22:                                               ; preds = %18, %14
  br label %23

23:                                               ; preds = %22, %2
  ret void
}