; Function Attrs: mustprogress nofree norecurse nosync nounwind willreturn memory(argmem: readwrite) uwtable
define dso_local void @_ZNSt3__112strstreambuf6freezeEb(ptr noundef nonnull align 8 captures(none) dereferenceable(96) %0, i1 noundef zeroext %1) local_unnamed_addr #6 align 2 {
  %3 = getelementptr inbounds nuw i8, ptr %0, i64 64
  %4 = load i32, ptr %3, align 8, !tbaa !7
  %5 = and i32 %4, 4
  %.not = icmp eq i32 %5, 0
  br i1 %.not, label %7, label %.sink.split

.sink.split:                                      ; preds = %2
  %6 = and i32 %4, -9
  %masksel = select i1 %1, i32 8, i32 0
  %.sink = or disjoint i32 %6, %masksel
  store i32 %.sink, ptr %3, align 8, !tbaa !7
  br label %7

7:                                                ; preds = %.sink.split, %2
  ret void
}